target datalayout = "e-m:e-p270:32:32-p271:32:32-p272:64:64-i64:64-i128:128-f80:128-n8:16:32:64-S128"
target triple = "x86_64-pc-linux-gnu"

%struct.AVFormatContext = type { ptr, ptr, ptr, ptr, ptr, i32, i32, ptr, i32, ptr, i32, ptr, ptr, i64, i64, i64, i32, i32, i32, i64, i64, ptr, i32, i32, ptr, i32, i32, i32, i32, ptr, i64, i32, i32, %struct.AVIOInterruptCB, i32, i32, i32, i32, i64, i32, i32, i32, i32, i32, i32, i32, i32, i32, i32, i32, i32, i64, i32, i32, i32, i32, i32, ptr, ptr, ptr, ptr, i32, ptr, ptr, ptr, ptr, i32, ptr, ptr, i64, ptr, ptr, ptr, i64 }
%struct.AVIOInterruptCB = type { ptr, ptr }
%struct.AVStream = type { ptr, i32, i32, ptr, ptr, %struct.AVRational, i64, i64, i64, i32, i32, %struct.AVRational, ptr, %struct.AVRational, %struct.AVPacket, i32, %struct.AVRational, i32 }
%struct.AVPacket = type { ptr, i64, i64, ptr, i32, i32, i32, ptr, i32, i64, i64, ptr, ptr, %struct.AVRational }
%struct.AVRational = type { i32, i32 }
%struct.FFStream = type { %struct.AVStream, ptr, i32, ptr, i32, ptr, i32, %struct.anon.1, i32, i32, %struct.FFFrac, ptr, ptr, i32, i32, i64, i64, i32, i32, i32, i64, i64, i64, i32, i64, i64, i64, i32, i32, [17 x i64], [17 x i8], [17 x i64], i64, i8, i8, %struct.AVRational, %struct.AVProbeData, ptr, i64, i32, i32, i32, ptr, i32, i32, i64, i64, ptr, %struct.AVRational }
%struct.anon.1 = type { ptr, i32 }
%struct.FFFrac = type { i64, i64, i64 }
%struct.AVProbeData = type { ptr, ptr, i32, ptr }

; Function Attrs: alwaysinline nounwind uwtable
define internal ptr @ffstream(ptr noundef %0) #4 {
  %2 = alloca ptr, align 8
  store ptr %0, ptr %2, align 8, !tbaa !51
  %3 = load ptr, ptr %2, align 8, !tbaa !51
  ret ptr %3
}

; Function Attrs: nounwind uwtable
define i32 @ff_get_muxer_ts_offset(ptr noundef %0, i32 noundef %1, ptr noundef %2) #0 {
  %4 = alloca i32, align 4
  %5 = alloca ptr, align 8
  %6 = alloca i32, align 4
  %7 = alloca ptr, align 8
  %8 = alloca ptr, align 8
  %9 = alloca i32, align 4
  %10 = alloca %struct.AVRational, align 4
  store ptr %0, ptr %5, align 8, !tbaa !14
  store i32 %1, ptr %6, align 4, !tbaa !16
  store ptr %2, ptr %7, align 8, !tbaa !157
  call void @llvm.lifetime.start.p0(i64 8, ptr %8) #11
  %11 = load i32, ptr %6, align 4, !tbaa !16
  %12 = icmp slt i32 %11, 0
  br i1 %12, label %19, label %13

13:                                               ; preds = %3
  %14 = load i32, ptr %6, align 4, !tbaa !16
  %15 = load ptr, ptr %5, align 8, !tbaa !14
  %16 = getelementptr inbounds nuw %struct.AVFormatContext, ptr %15, i32 0, i32 6
  %17 = load i32, ptr %16, align 4, !tbaa !48
  %18 = icmp uge i32 %14, %17
  br i1 %18, label %19, label %20

19:                                               ; preds = %13, %3
  store i32 -22, ptr %4, align 4
  store i32 1, ptr %9, align 4
  br label %52

20:                                               ; preds = %13
  %21 = load ptr, ptr %5, align 8, !tbaa !14
  %22 = getelementptr inbounds nuw %struct.AVFormatContext, ptr %21, i32 0, i32 7
  %23 = load ptr, ptr %22, align 8, !tbaa !50
  %24 = load i32, ptr %6, align 4, !tbaa !16
  %25 = sext i32 %24 to i64
  %26 = getelementptr inbounds ptr, ptr %23, i64 %25
  %27 = load ptr, ptr %26, align 8, !tbaa !51
  store ptr %27, ptr %8, align 8, !tbaa !51
  %28 = load ptr, ptr %8, align 8, !tbaa !51
  %29 = call ptr @ffstream(ptr noundef %28)
  %30 = getelementptr inbounds nuw %struct.FFStream, ptr %29, i32 0, i32 24
  %31 = load i64, ptr %30, align 8, !tbaa !159
  %32 = load ptr, ptr %7, align 8, !tbaa !157
  store i64 %31, ptr %32, align 8, !tbaa !114
  %33 = load ptr, ptr %5, align 8, !tbaa !14
  %34 = getelementptr inbounds nuw %struct.AVFormatContext, ptr %33, i32 0, i32 69
  %35 = load i64, ptr %34, align 8, !tbaa !160
  %36 = icmp ne i64 %35, 0
  br i1 %36, label %37, label %51

37:                                               ; preds = %20
  %38 = load ptr, ptr %5, align 8, !tbaa !14
  %39 = getelementptr inbounds nuw %struct.AVFormatContext, ptr %38, i32 0, i32 69
  %40 = load i64, ptr %39, align 8, !tbaa !160
  %41 = getelementptr inbounds nuw %struct.AVRational, ptr %10, i32 0, i32 0
  store i32 1, ptr %41, align 4, !tbaa !137
  %42 = getelementptr inbounds nuw %struct.AVRational, ptr %10, i32 0, i32 1
  store i32 1000000, ptr %42, align 4, !tbaa !138
  %43 = load ptr, ptr %8, align 8, !tbaa !51
  %44 = getelementptr inbounds nuw %struct.AVStream, ptr %43, i32 0, i32 5
  %45 = load i64, ptr %10, align 4
  %46 = load i64, ptr %44, align 8
  %47 = call i64 @av_rescale_q(i64 noundef %40, i64 %45, i64 %46) #12
  %48 = load ptr, ptr %7, align 8, !tbaa !157
  %49 = load i64, ptr %48, align 8, !tbaa !114
  %50 = add nsw i64 %49, %47
  store i64 %50, ptr %48, align 8, !tbaa !114
  br label %51

51:                                               ; preds = %37, %20
  store i32 0, ptr %4, align 4
  store i32 1, ptr %9, align 4
  br label %52

52:                                               ; preds = %51, %19
  call void @llvm.lifetime.end.p0(i64 8, ptr %8) #11
  %53 = load i32, ptr %4, align 4
  ret i32 %53
}