; Function Attrs: mustprogress nofree nosync nounwind willreturn memory(read, argmem: readwrite, inaccessiblemem: none) uwtable
define range(i32 -22, 1) i32 @ff_get_muxer_ts_offset(ptr noundef readonly captures(none) %0, i32 noundef %1, ptr noundef writeonly captures(none) %2) local_unnamed_addr #5 {
  %4 = icmp slt i32 %1, 0
  br i1 %4, label %23, label %5

5:                                                ; preds = %3
  %6 = getelementptr inbounds nuw i8, ptr %0, i64 44
  %7 = load i32, ptr %6, align 4, !tbaa !35
  %.not = icmp ult i32 %1, %7
  br i1 %.not, label %8, label %23

8:                                                ; preds = %5
  %9 = getelementptr inbounds nuw i8, ptr %0, i64 48
  %10 = load ptr, ptr %9, align 8, !tbaa !37
  %11 = zext nneg i32 %1 to i64
  %12 = getelementptr inbounds nuw ptr, ptr %10, i64 %11
  %13 = load ptr, ptr %12, align 8, !tbaa !38
  %14 = getelementptr inbounds nuw i8, ptr %13, i64 400
  %15 = load i64, ptr %14, align 8, !tbaa !138
  store i64 %15, ptr %2, align 8, !tbaa !139
  %16 = getelementptr inbounds nuw i8, ptr %0, i64 432
  %17 = load i64, ptr %16, align 8, !tbaa !140
  %.not13 = icmp eq i64 %17, 0
  br i1 %.not13, label %23, label %18

18:                                               ; preds = %8
  %19 = getelementptr inbounds nuw i8, ptr %13, i64 32
  %20 = load i64, ptr %19, align 8
  %21 = tail call i64 @av_rescale_q(i64 noundef %17, i64 4294967296000001, i64 %20) #14
  %22 = add nsw i64 %21, %15
  store i64 %22, ptr %2, align 8, !tbaa !139
  br label %23

23:                                               ; preds = %8, %18, %3, %5
  %.0 = phi i32 [ -22, %5 ], [ -22, %3 ], [ 0, %18 ], [ 0, %8 ]
  ret i32 %.0
}